---
triple:          'arm64-apple-darwin'
binary-path:     '/Users/vipulsinha/Documents/GIT/Algorithm/ThinkCell/interval_map'
relocations:
  - { offsetInCU: 0x5C, offset: 0x5C, size: 0x8, addend: 0x0, symName: __ZNSt3__1L19piecewise_constructE, symObjAddr: 0x4139, symBinAddr: 0x100007D35, symSize: 0x0 }
  - { offsetInCU: 0x3715, offset: 0x3715, size: 0x8, addend: 0x0, symName: __ZNSt3__17advanceB7v160006INS_21__tree_const_iteratorINS_12__value_typeIicEEPNS_11__tree_nodeIS3_PvEElEEllvEEvRT_T0_, symObjAddr: 0x1E14, symBinAddr: 0x100005800, symSize: 0x50 }
  - { offsetInCU: 0x37A6, offset: 0x37A6, size: 0x8, addend: 0x0, symName: __ZNSt3__17advanceB7v160006INS_14__map_iteratorINS_15__tree_iteratorINS_12__value_typeIicEEPNS_11__tree_nodeIS4_PvEElEEEEllvEEvRT_T0_, symObjAddr: 0x3178, symBinAddr: 0x100006B64, symSize: 0x50 }
  - { offsetInCU: 0x47DB, offset: 0x47DB, size: 0x8, addend: 0x0, symName: __ZNSt3__17launderB7v160006INS_4pairIKicEEEEPT_S5_, symObjAddr: 0x7FC, symBinAddr: 0x1000041E8, symSize: 0x24 }
  - { offsetInCU: 0x4812, offset: 0x4812, size: 0x8, addend: 0x0, symName: __ZNSt3__19__launderB7v160006INS_4pairIKicEEEEPT_S5_, symObjAddr: 0x820, symBinAddr: 0x10000420C, symSize: 0x14 }
  - { offsetInCU: 0x4849, offset: 0x4849, size: 0x8, addend: 0x0, symName: __ZNSt3__119__libcpp_deallocateB7v160006EPvmm, symObjAddr: 0x878, symBinAddr: 0x100004264, symSize: 0x60 }
  - { offsetInCU: 0x48AE, offset: 0x48AE, size: 0x8, addend: 0x0, symName: __ZNSt3__124__is_overaligned_for_newB7v160006Em, symObjAddr: 0x8D8, symBinAddr: 0x1000042C4, symSize: 0x20 }
  - { offsetInCU: 0x48DC, offset: 0x48DC, size: 0x8, addend: 0x0, symName: __ZNSt3__127__do_deallocate_handle_sizeB7v160006IJSt11align_val_tEEEvPvmDpT_, symObjAddr: 0x8F8, symBinAddr: 0x1000042E4, symSize: 0x30 }
  - { offsetInCU: 0x492F, offset: 0x492F, size: 0x8, addend: 0x0, symName: __ZNSt3__127__do_deallocate_handle_sizeB7v160006IJEEEvPvmDpT_, symObjAddr: 0x928, symBinAddr: 0x100004314, symSize: 0x28 }
  - { offsetInCU: 0x496D, offset: 0x496D, size: 0x8, addend: 0x0, symName: __ZNSt3__124__libcpp_operator_deleteB7v160006IJPvSt11align_val_tEEEvDpT_, symObjAddr: 0x950, symBinAddr: 0x10000433C, symSize: 0x2C }
  - { offsetInCU: 0x49B6, offset: 0x49B6, size: 0x8, addend: 0x0, symName: __ZNSt3__124__libcpp_operator_deleteB7v160006IJPvEEEvDpT_, symObjAddr: 0x97C, symBinAddr: 0x100004368, symSize: 0x24 }
  - { offsetInCU: 0x4AF2, offset: 0x4AF2, size: 0x8, addend: 0x0, symName: __ZNSt3__19make_pairB7v160006IiRKcEENS_4pairINS_18__unwrap_ref_decayIT_E4typeENS4_IT0_E4typeEEEOS5_OS8_, symObjAddr: 0xBD0, symBinAddr: 0x1000045BC, symSize: 0x34 }
  - { offsetInCU: 0x4D34, offset: 0x4D34, size: 0x8, addend: 0x0, symName: __ZNSt3__1eqB7v160006ERKNS_21__tree_const_iteratorINS_12__value_typeIicEEPNS_11__tree_nodeIS2_PvEElEES9_, symObjAddr: 0x17B4, symBinAddr: 0x1000051A0, symSize: 0x30 }
  - { offsetInCU: 0x4D71, offset: 0x4D71, size: 0x8, addend: 0x0, symName: __ZNSt3__14nextB7v160006INS_21__tree_const_iteratorINS_12__value_typeIicEEPNS_11__tree_nodeIS3_PvEElEEEENS_9enable_ifIXsr25__is_cpp17_input_iteratorIT_EE5valueESA_E4typeESA_NS_15iterator_traitsISA_E15difference_typeE, symObjAddr: 0x1B24, symBinAddr: 0x100005510, symSize: 0x50 }
  - { offsetInCU: 0x4DB4, offset: 0x4DB4, size: 0x8, addend: 0x0, symName: __ZNSt3__17launderB7v160006IKNS_4pairIKicEEEEPT_S6_, symObjAddr: 0x1C90, symBinAddr: 0x10000567C, symSize: 0x24 }
  - { offsetInCU: 0x4DEB, offset: 0x4DEB, size: 0x8, addend: 0x0, symName: __ZNSt3__19__launderB7v160006IKNS_4pairIKicEEEEPT_S6_, symObjAddr: 0x1CB4, symBinAddr: 0x1000056A0, symSize: 0x14 }
  - { offsetInCU: 0x4E22, offset: 0x4E22, size: 0x8, addend: 0x0, symName: __ZNSt3__116__tree_prev_iterB7v160006IPNS_16__tree_node_baseIPvEEPNS_15__tree_end_nodeIS4_EEEET_T0_, symObjAddr: 0x1CC8, symBinAddr: 0x1000056B4, symSize: 0xA4 }
  - { offsetInCU: 0x4E6E, offset: 0x4E6E, size: 0x8, addend: 0x0, symName: __ZNSt3__110__tree_maxB7v160006IPNS_16__tree_node_baseIPvEEEET_S5_, symObjAddr: 0x1D6C, symBinAddr: 0x100005758, symSize: 0x40 }
  - { offsetInCU: 0x4EA3, offset: 0x4EA3, size: 0x8, addend: 0x0, symName: __ZNSt3__120__tree_is_left_childB7v160006IPNS_16__tree_node_baseIPvEEEEbT_, symObjAddr: 0x1DAC, symBinAddr: 0x100005798, symSize: 0x2C }
  - { offsetInCU: 0x4ED8, offset: 0x4ED8, size: 0x8, addend: 0x0, symName: __ZNSt3__121__convert_to_integralB7v160006El, symObjAddr: 0x1E64, symBinAddr: 0x100005850, symSize: 0x14 }
  - { offsetInCU: 0x4F04, offset: 0x4F04, size: 0x8, addend: 0x0, symName: __ZNSt3__19__advanceB7v160006INS_21__tree_const_iteratorINS_12__value_typeIicEEPNS_11__tree_nodeIS3_PvEElEEEEvRT_NS_15iterator_traitsIS9_E15difference_typeENS_26bidirectional_iterator_tagE, symObjAddr: 0x1E78, symBinAddr: 0x100005864, symSize: 0xA4 }
  - { offsetInCU: 0x4F4D, offset: 0x4F4D, size: 0x8, addend: 0x0, symName: __ZNSt3__116__tree_next_iterB7v160006IPNS_15__tree_end_nodeIPNS_16__tree_node_baseIPvEEEES5_EET_T0_, symObjAddr: 0x1F54, symBinAddr: 0x100005940, symSize: 0x80 }
  - { offsetInCU: 0x4F8B, offset: 0x4F8B, size: 0x8, addend: 0x0, symName: __ZNSt3__110__tree_minB7v160006IPNS_16__tree_node_baseIPvEEEET_S5_, symObjAddr: 0x1FD4, symBinAddr: 0x1000059C0, symSize: 0x40 }
  - { offsetInCU: 0x4FDE, offset: 0x4FDE, size: 0x8, addend: 0x0, symName: __ZNSt3__117__libcpp_allocateB7v160006Emm, symObjAddr: 0x21F8, symBinAddr: 0x100005BE4, symSize: 0x60 }
  - { offsetInCU: 0x5038, offset: 0x5038, size: 0x8, addend: 0x0, symName: __ZNSt3__121__libcpp_operator_newB7v160006IJmSt11align_val_tEEEPvDpT_, symObjAddr: 0x2270, symBinAddr: 0x100005C5C, symSize: 0x2C }
  - { offsetInCU: 0x5085, offset: 0x5085, size: 0x8, addend: 0x0, symName: __ZNSt3__121__libcpp_operator_newB7v160006IJmEEEPvDpT_, symObjAddr: 0x229C, symBinAddr: 0x100005C88, symSize: 0x24 }
  - { offsetInCU: 0x50BE, offset: 0x50BE, size: 0x8, addend: 0x0, symName: __ZNSt3__127__tree_balance_after_insertB7v160006IPNS_16__tree_node_baseIPvEEEEvT_S5_, symObjAddr: 0x2514, symBinAddr: 0x100005F00, symSize: 0x27C }
  - { offsetInCU: 0x513A, offset: 0x513A, size: 0x8, addend: 0x0, symName: __ZNSt3__118__tree_left_rotateB7v160006IPNS_16__tree_node_baseIPvEEEEvT_, symObjAddr: 0x27B8, symBinAddr: 0x1000061A4, symSize: 0xD8 }
  - { offsetInCU: 0x517C, offset: 0x517C, size: 0x8, addend: 0x0, symName: __ZNSt3__119__tree_right_rotateB7v160006IPNS_16__tree_node_baseIPvEEEEvT_, symObjAddr: 0x2890, symBinAddr: 0x10000627C, symSize: 0xCC }
  - { offsetInCU: 0x51BE, offset: 0x51BE, size: 0x8, addend: 0x0, symName: __ZNSt3__14prevB7v160006INS_14__map_iteratorINS_15__tree_iteratorINS_12__value_typeIicEEPNS_11__tree_nodeIS4_PvEElEEEEEENS_9enable_ifIXsr25__is_cpp17_input_iteratorIT_EE5valueESC_E4typeESC_NS_15iterator_traitsISC_E15difference_typeE, symObjAddr: 0x2CE8, symBinAddr: 0x1000066D4, symSize: 0x58 }
  - { offsetInCU: 0x5201, offset: 0x5201, size: 0x8, addend: 0x0, symName: __ZNSt3__1neB7v160006ERKNS_14__map_iteratorINS_15__tree_iteratorINS_12__value_typeIicEEPNS_11__tree_nodeIS3_PvEElEEEESB_, symObjAddr: 0x2E5C, symBinAddr: 0x100006848, symSize: 0x30 }
  - { offsetInCU: 0x523E, offset: 0x523E, size: 0x8, addend: 0x0, symName: __ZNSt3__19__advanceB7v160006INS_14__map_iteratorINS_15__tree_iteratorINS_12__value_typeIicEEPNS_11__tree_nodeIS4_PvEElEEEEEEvRT_NS_15iterator_traitsISB_E15difference_typeENS_26bidirectional_iterator_tagE, symObjAddr: 0x31C8, symBinAddr: 0x100006BB4, symSize: 0xA4 }
  - { offsetInCU: 0x52ED, offset: 0x52ED, size: 0x8, addend: 0x0, symName: __ZNSt3__13getB7v160006ILm0ENS_15__tree_iteratorINS_12__value_typeIicEEPNS_11__tree_nodeIS3_PvEElEEbEEONS_13tuple_elementIXT_ENS_4pairIT0_T1_EEE4typeEOSD_, symObjAddr: 0x34B8, symBinAddr: 0x100006EA4, symSize: 0x24 }
  - { offsetInCU: 0x5337, offset: 0x5337, size: 0x8, addend: 0x0, symName: __ZNSt3__13getB7v160006ILm1ENS_15__tree_iteratorINS_12__value_typeIicEEPNS_11__tree_nodeIS3_PvEElEEbEEONS_13tuple_elementIXT_ENS_4pairIT0_T1_EEE4typeEOSD_, symObjAddr: 0x34DC, symBinAddr: 0x100006EC8, symSize: 0x24 }
  - { offsetInCU: 0x53FB, offset: 0x53FB, size: 0x8, addend: 0x0, symName: __ZNSt3__1neB7v160006ERKNS_15__tree_iteratorINS_12__value_typeIicEEPNS_11__tree_nodeIS2_PvEElEES9_, symObjAddr: 0x3728, symBinAddr: 0x100007114, symSize: 0x34 }
  - { offsetInCU: 0x5438, offset: 0x5438, size: 0x8, addend: 0x0, symName: __ZNSt3__1eqB7v160006ERKNS_15__tree_iteratorINS_12__value_typeIicEEPNS_11__tree_nodeIS2_PvEElEES9_, symObjAddr: 0x375C, symBinAddr: 0x100007148, symSize: 0x30 }
  - { offsetInCU: 0x54AC, offset: 0x54AC, size: 0x8, addend: 0x0, symName: __ZNSt3__116forward_as_tupleB7v160006IJiEEENS_5tupleIJDpOT_EEES4_, symObjAddr: 0x388C, symBinAddr: 0x100007278, symSize: 0x2C }
  - { offsetInCU: 0x54E5, offset: 0x54E5, size: 0x8, addend: 0x0, symName: __ZNSt3__116forward_as_tupleB7v160006IJEEENS_5tupleIJDpOT_EEES4_, symObjAddr: 0x38B8, symBinAddr: 0x1000072A4, symSize: 0x4 }
  - { offsetInCU: 0x5514, offset: 0x5514, size: 0x8, addend: 0x0, symName: __ZNSt3__13getB7v160006ILm0EJOiEEERNS_13tuple_elementIXT_ENS_5tupleIJDpT0_EEEE4typeERS6_, symObjAddr: 0x3B2C, symBinAddr: 0x100007518, symSize: 0x24 }
  - { offsetInCU: 0x557B, offset: 0x557B, size: 0x8, addend: 0x0, symName: __ZNSt3__1eqB7v160006ERKNS_20__map_const_iteratorINS_21__tree_const_iteratorINS_12__value_typeIicEEPNS_11__tree_nodeIS3_PvEElEEEESB_, symObjAddr: 0x3CD0, symBinAddr: 0x1000076BC, symSize: 0x30 }
  - { offsetInCU: 0x56A1, offset: 0x56A1, size: 0x8, addend: 0x0, symName: __ZSt28__throw_bad_array_new_lengthB7v160006v, symObjAddr: 0x21C4, symBinAddr: 0x100005BB0, symSize: 0x34 }
  - { offsetInCU: 0x7DA7, offset: 0x7DA7, size: 0x8, addend: 0x0, symName: _main, symObjAddr: 0x0, symBinAddr: 0x1000039EC, symSize: 0x180 }
  - { offsetInCU: 0x7E72, offset: 0x7E72, size: 0x8, addend: 0x0, symName: __ZN12interval_mapIicEC1ERKc, symObjAddr: 0x180, symBinAddr: 0x100003B6C, symSize: 0x34 }
  - { offsetInCU: 0x7EA8, offset: 0x7EA8, size: 0x8, addend: 0x0, symName: __ZN12interval_mapIicE6assignERKiS2_RKc, symObjAddr: 0x1B4, symBinAddr: 0x100003BA0, symSize: 0x2D0 }
  - { offsetInCU: 0x7F7A, offset: 0x7F7A, size: 0x8, addend: 0x0, symName: __ZNK12interval_mapIicEixERKi, symObjAddr: 0x484, symBinAddr: 0x100003E70, symSize: 0x90 }
  - { offsetInCU: 0x7FBA, offset: 0x7FBA, size: 0x8, addend: 0x0, symName: __ZN12interval_mapIicED1Ev, symObjAddr: 0x514, symBinAddr: 0x100003F00, symSize: 0x2C }
  - { offsetInCU: 0x7FE4, offset: 0x7FE4, size: 0x8, addend: 0x0, symName: __ZN12interval_mapIicED2Ev, symObjAddr: 0x540, symBinAddr: 0x100003F2C, symSize: 0x30 }
  - { offsetInCU: 0x800E, offset: 0x800E, size: 0x8, addend: 0x0, symName: __ZNSt3__13mapIicNS_4lessIiEENS_9allocatorINS_4pairIKicEEEEED1B7v160006Ev, symObjAddr: 0x570, symBinAddr: 0x100003F5C, symSize: 0x2C }
  - { offsetInCU: 0x8036, offset: 0x8036, size: 0x8, addend: 0x0, symName: __ZNSt3__13mapIicNS_4lessIiEENS_9allocatorINS_4pairIKicEEEEED2B7v160006Ev, symObjAddr: 0x59C, symBinAddr: 0x100003F88, symSize: 0x2C }
  - { offsetInCU: 0x805E, offset: 0x805E, size: 0x8, addend: 0x0, symName: __ZNSt3__16__treeINS_12__value_typeIicEENS_19__map_value_compareIiS2_NS_4lessIiEELb1EEENS_9allocatorIS2_EEED1Ev, symObjAddr: 0x5C8, symBinAddr: 0x100003FB4, symSize: 0x2C }
  - { offsetInCU: 0x8088, offset: 0x8088, size: 0x8, addend: 0x0, symName: __ZNSt3__16__treeINS_12__value_typeIicEENS_19__map_value_compareIiS2_NS_4lessIiEELb1EEENS_9allocatorIS2_EEED2Ev, symObjAddr: 0x5F4, symBinAddr: 0x100003FE0, symSize: 0x38 }
  - { offsetInCU: 0x80B2, offset: 0x80B2, size: 0x8, addend: 0x0, symName: __ZNSt3__16__treeINS_12__value_typeIicEENS_19__map_value_compareIiS2_NS_4lessIiEELb1EEENS_9allocatorIS2_EEE7destroyEPNS_11__tree_nodeIS2_PvEE, symObjAddr: 0x62C, symBinAddr: 0x100004018, symSize: 0xAC }
  - { offsetInCU: 0x80FC, offset: 0x80FC, size: 0x8, addend: 0x0, symName: __ZNKSt3__16__treeINS_12__value_typeIicEENS_19__map_value_compareIiS2_NS_4lessIiEELb1EEENS_9allocatorIS2_EEE6__rootB7v160006Ev, symObjAddr: 0x6D8, symBinAddr: 0x1000040C4, symSize: 0x28 }
  - { offsetInCU: 0x8120, offset: 0x8120, size: 0x8, addend: 0x0, symName: __ZNSt3__16__treeINS_12__value_typeIicEENS_19__map_value_compareIiS2_NS_4lessIiEELb1EEENS_9allocatorIS2_EEE12__node_allocB7v160006Ev, symObjAddr: 0x700, symBinAddr: 0x1000040EC, symSize: 0x28 }
  - { offsetInCU: 0x8144, offset: 0x8144, size: 0x8, addend: 0x0, symName: __ZNSt3__116allocator_traitsINS_9allocatorINS_11__tree_nodeINS_12__value_typeIicEEPvEEEEE7destroyB7v160006INS_4pairIKicEEvvEEvRS7_PT_, symObjAddr: 0x728, symBinAddr: 0x100004114, symSize: 0x14 }
  - { offsetInCU: 0x817D, offset: 0x817D, size: 0x8, addend: 0x0, symName: __ZNSt3__122__tree_key_value_typesINS_12__value_typeIicEEE9__get_ptrB7v160006ERS2_, symObjAddr: 0x73C, symBinAddr: 0x100004128, symSize: 0x24 }
  - { offsetInCU: 0x81A0, offset: 0x81A0, size: 0x8, addend: 0x0, symName: __ZNSt3__116allocator_traitsINS_9allocatorINS_11__tree_nodeINS_12__value_typeIicEEPvEEEEE10deallocateB7v160006ERS7_PS6_m, symObjAddr: 0x76C, symBinAddr: 0x100004158, symSize: 0x34 }
  - { offsetInCU: 0x81E1, offset: 0x81E1, size: 0x8, addend: 0x0, symName: __ZNSt3__117__compressed_pairINS_15__tree_end_nodeIPNS_16__tree_node_baseIPvEEEENS_9allocatorINS_11__tree_nodeINS_12__value_typeIicEES3_EEEEE6secondB7v160006Ev, symObjAddr: 0x7A0, symBinAddr: 0x10000418C, symSize: 0x24 }
  - { offsetInCU: 0x8206, offset: 0x8206, size: 0x8, addend: 0x0, symName: __ZNSt3__122__compressed_pair_elemINS_9allocatorINS_11__tree_nodeINS_12__value_typeIicEEPvEEEELi1ELb1EE5__getB7v160006Ev, symObjAddr: 0x7C4, symBinAddr: 0x1000041B0, symSize: 0x14 }
  - { offsetInCU: 0x8229, offset: 0x8229, size: 0x8, addend: 0x0, symName: __ZNSt3__112__value_typeIicE11__get_valueB7v160006Ev, symObjAddr: 0x7D8, symBinAddr: 0x1000041C4, symSize: 0x24 }
  - { offsetInCU: 0x824D, offset: 0x824D, size: 0x8, addend: 0x0, symName: __ZNSt3__19allocatorINS_11__tree_nodeINS_12__value_typeIicEEPvEEE10deallocateB7v160006EPS5_m, symObjAddr: 0x834, symBinAddr: 0x100004220, symSize: 0x44 }
  - { offsetInCU: 0x828D, offset: 0x828D, size: 0x8, addend: 0x0, symName: __ZNKSt3__16__treeINS_12__value_typeIicEENS_19__map_value_compareIiS2_NS_4lessIiEELb1EEENS_9allocatorIS2_EEE10__end_nodeB7v160006Ev, symObjAddr: 0x9A0, symBinAddr: 0x10000438C, symSize: 0x2C }
  - { offsetInCU: 0x82B1, offset: 0x82B1, size: 0x8, addend: 0x0, symName: __ZNSt3__114pointer_traitsIPNS_15__tree_end_nodeIPNS_16__tree_node_baseIPvEEEEE10pointer_toB7v160006ERS6_, symObjAddr: 0x9CC, symBinAddr: 0x1000043B8, symSize: 0x14 }
  - { offsetInCU: 0x82D3, offset: 0x82D3, size: 0x8, addend: 0x0, symName: __ZNKSt3__117__compressed_pairINS_15__tree_end_nodeIPNS_16__tree_node_baseIPvEEEENS_9allocatorINS_11__tree_nodeINS_12__value_typeIicEES3_EEEEE5firstB7v160006Ev, symObjAddr: 0x9E0, symBinAddr: 0x1000043CC, symSize: 0x24 }
  - { offsetInCU: 0x82F8, offset: 0x82F8, size: 0x8, addend: 0x0, symName: __ZNKSt3__122__compressed_pair_elemINS_15__tree_end_nodeIPNS_16__tree_node_baseIPvEEEELi0ELb0EE5__getB7v160006Ev, symObjAddr: 0xA04, symBinAddr: 0x1000043F0, symSize: 0x14 }
  - { offsetInCU: 0x831B, offset: 0x831B, size: 0x8, addend: 0x0, symName: __ZN12interval_mapIicEC2ERKc, symObjAddr: 0xA18, symBinAddr: 0x100004404, symSize: 0xD0 }
  - { offsetInCU: 0x8351, offset: 0x8351, size: 0x8, addend: 0x0, symName: __ZNSt3__13mapIicNS_4lessIiEENS_9allocatorINS_4pairIKicEEEEEC1B7v160006Ev, symObjAddr: 0xAE8, symBinAddr: 0x1000044D4, symSize: 0x2C }
  - { offsetInCU: 0x8392, offset: 0x8392, size: 0x8, addend: 0x0, symName: __ZNSt3__13mapIicNS_4lessIiEENS_9allocatorINS_4pairIKicEEEEE6insertB7v160006INS4_IicEEvEENS_14__map_iteratorINS_15__tree_iteratorINS_12__value_typeIicEEPNS_11__tree_nodeISE_PvEElEEEENS_20__map_const_iteratorINS_21__tree_const_iteratorISE_SI_lEEEEOT_, symObjAddr: 0xB14, symBinAddr: 0x100004500, symSize: 0x50 }
  - { offsetInCU: 0x83DE, offset: 0x83DE, size: 0x8, addend: 0x0, symName: __ZNSt3__13mapIicNS_4lessIiEENS_9allocatorINS_4pairIKicEEEEE3endB7v160006Ev, symObjAddr: 0xB64, symBinAddr: 0x100004550, symSize: 0x38 }
  - { offsetInCU: 0x8402, offset: 0x8402, size: 0x8, addend: 0x0, symName: __ZNSt3__120__map_const_iteratorINS_21__tree_const_iteratorINS_12__value_typeIicEEPNS_11__tree_nodeIS3_PvEElEEEC1B7v160006ENS_14__map_iteratorINS_15__tree_iteratorIS3_S7_lEEEE, symObjAddr: 0xB9C, symBinAddr: 0x100004588, symSize: 0x34 }
  - { offsetInCU: 0x843A, offset: 0x843A, size: 0x8, addend: 0x0, symName: __ZNSt3__114numeric_limitsIiE6lowestB7v160006Ev, symObjAddr: 0xC04, symBinAddr: 0x1000045F0, symSize: 0x14 }
  - { offsetInCU: 0x844D, offset: 0x844D, size: 0x8, addend: 0x0, symName: __ZNSt3__13mapIicNS_4lessIiEENS_9allocatorINS_4pairIKicEEEEEC2B7v160006Ev, symObjAddr: 0xC18, symBinAddr: 0x100004604, symSize: 0x40 }
  - { offsetInCU: 0x8475, offset: 0x8475, size: 0x8, addend: 0x0, symName: __ZNSt3__119__map_value_compareIiNS_12__value_typeIicEENS_4lessIiEELb1EEC1B7v160006ES4_, symObjAddr: 0xC58, symBinAddr: 0x100004644, symSize: 0x2C }
  - { offsetInCU: 0x84AC, offset: 0x84AC, size: 0x8, addend: 0x0, symName: __ZNSt3__16__treeINS_12__value_typeIicEENS_19__map_value_compareIiS2_NS_4lessIiEELb1EEENS_9allocatorIS2_EEEC1ERKS6_, symObjAddr: 0xC84, symBinAddr: 0x100004670, symSize: 0x34 }
  - { offsetInCU: 0x84E6, offset: 0x84E6, size: 0x8, addend: 0x0, symName: __ZNSt3__119__map_value_compareIiNS_12__value_typeIicEENS_4lessIiEELb1EEC2B7v160006ES4_, symObjAddr: 0xCB8, symBinAddr: 0x1000046A4, symSize: 0x14 }
  - { offsetInCU: 0x851D, offset: 0x851D, size: 0x8, addend: 0x0, symName: __ZNSt3__16__treeINS_12__value_typeIicEENS_19__map_value_compareIiS2_NS_4lessIiEELb1EEENS_9allocatorIS2_EEEC2ERKS6_, symObjAddr: 0xCCC, symBinAddr: 0x1000046B8, symSize: 0x7C }
  - { offsetInCU: 0x8556, offset: 0x8556, size: 0x8, addend: 0x0, symName: __ZNSt3__117__compressed_pairINS_15__tree_end_nodeIPNS_16__tree_node_baseIPvEEEENS_9allocatorINS_11__tree_nodeINS_12__value_typeIicEES3_EEEEEC1B7v160006ILb1EvEEv, symObjAddr: 0xD48, symBinAddr: 0x100004734, symSize: 0x2C }
  - { offsetInCU: 0x8589, offset: 0x8589, size: 0x8, addend: 0x0, symName: __ZNSt3__117__compressed_pairImNS_19__map_value_compareIiNS_12__value_typeIicEENS_4lessIiEELb1EEEEC1B7v160006IiRKS6_EEOT_OT0_, symObjAddr: 0xD74, symBinAddr: 0x100004760, symSize: 0x3C }
  - { offsetInCU: 0x85DF, offset: 0x85DF, size: 0x8, addend: 0x0, symName: __ZNSt3__16__treeINS_12__value_typeIicEENS_19__map_value_compareIiS2_NS_4lessIiEELb1EEENS_9allocatorIS2_EEE10__end_nodeB7v160006Ev, symObjAddr: 0xDB0, symBinAddr: 0x10000479C, symSize: 0x2C }
  - { offsetInCU: 0x8604, offset: 0x8604, size: 0x8, addend: 0x0, symName: __ZNSt3__16__treeINS_12__value_typeIicEENS_19__map_value_compareIiS2_NS_4lessIiEELb1EEENS_9allocatorIS2_EEE12__begin_nodeB7v160006Ev, symObjAddr: 0xDDC, symBinAddr: 0x1000047C8, symSize: 0x14 }
  - { offsetInCU: 0x8627, offset: 0x8627, size: 0x8, addend: 0x0, symName: __ZNSt3__117__compressed_pairINS_15__tree_end_nodeIPNS_16__tree_node_baseIPvEEEENS_9allocatorINS_11__tree_nodeINS_12__value_typeIicEES3_EEEEEC2B7v160006ILb1EvEEv, symObjAddr: 0xDF0, symBinAddr: 0x1000047DC, symSize: 0x34 }
  - { offsetInCU: 0x865A, offset: 0x865A, size: 0x8, addend: 0x0, symName: __ZNSt3__122__compressed_pair_elemINS_15__tree_end_nodeIPNS_16__tree_node_baseIPvEEEELi0ELb0EEC2B7v160006ENS_16__value_init_tagE, symObjAddr: 0xE24, symBinAddr: 0x100004810, symSize: 0x2C }
  - { offsetInCU: 0x868C, offset: 0x868C, size: 0x8, addend: 0x0, symName: __ZNSt3__122__compressed_pair_elemINS_9allocatorINS_11__tree_nodeINS_12__value_typeIicEEPvEEEELi1ELb1EEC2B7v160006ENS_16__value_init_tagE, symObjAddr: 0xE50, symBinAddr: 0x10000483C, symSize: 0x2C }
  - { offsetInCU: 0x86BE, offset: 0x86BE, size: 0x8, addend: 0x0, symName: __ZNSt3__115__tree_end_nodeIPNS_16__tree_node_baseIPvEEEC1B7v160006Ev, symObjAddr: 0xE7C, symBinAddr: 0x100004868, symSize: 0x2C }
  - { offsetInCU: 0x86E7, offset: 0x86E7, size: 0x8, addend: 0x0, symName: __ZNSt3__115__tree_end_nodeIPNS_16__tree_node_baseIPvEEEC2B7v160006Ev, symObjAddr: 0xEA8, symBinAddr: 0x100004894, symSize: 0x18 }
  - { offsetInCU: 0x870F, offset: 0x870F, size: 0x8, addend: 0x0, symName: __ZNSt3__19allocatorINS_11__tree_nodeINS_12__value_typeIicEEPvEEEC2B7v160006Ev, symObjAddr: 0xEC0, symBinAddr: 0x1000048AC, symSize: 0x2C }
  - { offsetInCU: 0x8738, offset: 0x8738, size: 0x8, addend: 0x0, symName: __ZNSt3__116__non_trivial_ifILb1ENS_9allocatorINS_11__tree_nodeINS_12__value_typeIicEEPvEEEEEC2B7v160006Ev, symObjAddr: 0xEEC, symBinAddr: 0x1000048D8, symSize: 0x14 }
  - { offsetInCU: 0x8760, offset: 0x8760, size: 0x8, addend: 0x0, symName: __ZNSt3__117__compressed_pairImNS_19__map_value_compareIiNS_12__value_typeIicEENS_4lessIiEELb1EEEEC2B7v160006IiRKS6_EEOT_OT0_, symObjAddr: 0xF00, symBinAddr: 0x1000048EC, symSize: 0x44 }
  - { offsetInCU: 0x87B7, offset: 0x87B7, size: 0x8, addend: 0x0, symName: __ZNSt3__122__compressed_pair_elemImLi0ELb0EEC2B7v160006IivEEOT_, symObjAddr: 0xF44, symBinAddr: 0x100004930, symSize: 0x24 }
  - { offsetInCU: 0x87F8, offset: 0x87F8, size: 0x8, addend: 0x0, symName: __ZNSt3__122__compressed_pair_elemINS_19__map_value_compareIiNS_12__value_typeIicEENS_4lessIiEELb1EEELi1ELb1EEC2B7v160006IRKS6_vEEOT_, symObjAddr: 0xF68, symBinAddr: 0x100004954, symSize: 0x18 }
  - { offsetInCU: 0x8838, offset: 0x8838, size: 0x8, addend: 0x0, symName: __ZNSt3__117__compressed_pairINS_15__tree_end_nodeIPNS_16__tree_node_baseIPvEEEENS_9allocatorINS_11__tree_nodeINS_12__value_typeIicEES3_EEEEE5firstB7v160006Ev, symObjAddr: 0xF80, symBinAddr: 0x10000496C, symSize: 0x24 }
  - { offsetInCU: 0x885D, offset: 0x885D, size: 0x8, addend: 0x0, symName: __ZNSt3__122__compressed_pair_elemINS_15__tree_end_nodeIPNS_16__tree_node_baseIPvEEEELi0ELb0EE5__getB7v160006Ev, symObjAddr: 0xFA4, symBinAddr: 0x100004990, symSize: 0x14 }
  - { offsetInCU: 0x8880, offset: 0x8880, size: 0x8, addend: 0x0, symName: __ZNSt3__16__treeINS_12__value_typeIicEENS_19__map_value_compareIiS2_NS_4lessIiEELb1EEENS_9allocatorIS2_EEE15__insert_uniqueB7v160006INS_4pairIicEEvEENS_15__tree_iteratorIS2_PNS_11__tree_nodeIS2_PvEElEENS_21__tree_const_iteratorIS2_SH_lEEOT_, symObjAddr: 0xFB8, symBinAddr: 0x1000049A4, symSize: 0x44 }
  - { offsetInCU: 0x88CC, offset: 0x88CC, size: 0x8, addend: 0x0, symName: __ZNSt3__114__map_iteratorINS_15__tree_iteratorINS_12__value_typeIicEEPNS_11__tree_nodeIS3_PvEElEEEC1B7v160006ES8_, symObjAddr: 0xFFC, symBinAddr: 0x1000049E8, symSize: 0x34 }
  - { offsetInCU: 0x8903, offset: 0x8903, size: 0x8, addend: 0x0, symName: __ZNSt3__16__treeINS_12__value_typeIicEENS_19__map_value_compareIiS2_NS_4lessIiEELb1EEENS_9allocatorIS2_EEE21__emplace_hint_uniqueB7v160006INS_4pairIicEEEENS_15__tree_iteratorIS2_PNS_11__tree_nodeIS2_PvEElEENS_21__tree_const_iteratorIS2_SH_lEEOT_, symObjAddr: 0x1030, symBinAddr: 0x100004A1C, symSize: 0x44 }
  - { offsetInCU: 0x894E, offset: 0x894E, size: 0x8, addend: 0x0, symName: __ZNSt3__16__treeINS_12__value_typeIicEENS_19__map_value_compareIiS2_NS_4lessIiEELb1EEENS_9allocatorIS2_EEE33__emplace_hint_unique_extract_keyB7v160006INS_4pairIicEEEENS_15__tree_iteratorIS2_PNS_11__tree_nodeIS2_PvEElEENS_21__tree_const_iteratorIS2_SH_lEEOT_NS_23__extract_key_first_tagE, symObjAddr: 0x1074, symBinAddr: 0x100004A60, symSize: 0x54 }
  - { offsetInCU: 0x89A4, offset: 0x89A4, size: 0x8, addend: 0x0, symName: __ZNSt3__16__treeINS_12__value_typeIicEENS_19__map_value_compareIiS2_NS_4lessIiEELb1EEENS_9allocatorIS2_EEE30__emplace_hint_unique_key_argsIiJNS_4pairIicEEEEENSB_INS_15__tree_iteratorIS2_PNS_11__tree_nodeIS2_PvEElEEbEENS_21__tree_const_iteratorIS2_SH_lEERKT_DpOT0_, symObjAddr: 0x10C8, symBinAddr: 0x100004AB4, symSize: 0x104 }
  - { offsetInCU: 0x8A6E, offset: 0x8A6E, size: 0x8, addend: 0x0, symName: __ZNSt3__16__treeINS_12__value_typeIicEENS_19__map_value_compareIiS2_NS_4lessIiEELb1EEENS_9allocatorIS2_EEE12__find_equalIiEERPNS_16__tree_node_baseIPvEENS_21__tree_const_iteratorIS2_PNS_11__tree_nodeIS2_SC_EElEERPNS_15__tree_end_nodeISE_EESF_RKT_, symObjAddr: 0x11CC, symBinAddr: 0x100004BB8, symSize: 0x304 }
  - { offsetInCU: 0x8B15, offset: 0x8B15, size: 0x8, addend: 0x0, symName: __ZNSt3__16__treeINS_12__value_typeIicEENS_19__map_value_compareIiS2_NS_4lessIiEELb1EEENS_9allocatorIS2_EEE16__construct_nodeIJNS_4pairIicEEEEENS_10unique_ptrINS_11__tree_nodeIS2_PvEENS_22__tree_node_destructorINS7_ISG_EEEEEEDpOT_, symObjAddr: 0x14D0, symBinAddr: 0x100004EBC, symSize: 0x110 }
  - { offsetInCU: 0x8B74, offset: 0x8B74, size: 0x8, addend: 0x0, symName: __ZNSt3__16__treeINS_12__value_typeIicEENS_19__map_value_compareIiS2_NS_4lessIiEELb1EEENS_9allocatorIS2_EEE16__insert_node_atEPNS_15__tree_end_nodeIPNS_16__tree_node_baseIPvEEEERSE_SE_, symObjAddr: 0x15E0, symBinAddr: 0x100004FCC, symSize: 0xCC }
  - { offsetInCU: 0x8BC7, offset: 0x8BC7, size: 0x8, addend: 0x0, symName: __ZNKSt3__110unique_ptrINS_11__tree_nodeINS_12__value_typeIicEEPvEENS_22__tree_node_destructorINS_9allocatorIS5_EEEEE3getB7v160006Ev, symObjAddr: 0x16AC, symBinAddr: 0x100005098, symSize: 0x28 }
  - { offsetInCU: 0x8BEB, offset: 0x8BEB, size: 0x8, addend: 0x0, symName: __ZNSt3__110unique_ptrINS_11__tree_nodeINS_12__value_typeIicEEPvEENS_22__tree_node_destructorINS_9allocatorIS5_EEEEE7releaseB7v160006Ev, symObjAddr: 0x16D4, symBinAddr: 0x1000050C0, symSize: 0x44 }
  - { offsetInCU: 0x8C1E, offset: 0x8C1E, size: 0x8, addend: 0x0, symName: __ZNSt3__110unique_ptrINS_11__tree_nodeINS_12__value_typeIicEEPvEENS_22__tree_node_destructorINS_9allocatorIS5_EEEEED1B7v160006Ev, symObjAddr: 0x1718, symBinAddr: 0x100005104, symSize: 0x2C }
  - { offsetInCU: 0x8C46, offset: 0x8C46, size: 0x8, addend: 0x0, symName: __ZNSt3__115__tree_iteratorINS_12__value_typeIicEEPNS_11__tree_nodeIS2_PvEElEC1B7v160006ES6_, symObjAddr: 0x1744, symBinAddr: 0x100005130, symSize: 0x34 }
  - { offsetInCU: 0x8C87, offset: 0x8C87, size: 0x8, addend: 0x0, symName: __ZNSt3__14pairINS_15__tree_iteratorINS_12__value_typeIicEEPNS_11__tree_nodeIS3_PvEElEEbEC1B7v160006IS8_RbLS5_0EEEOT_OT0_, symObjAddr: 0x1778, symBinAddr: 0x100005164, symSize: 0x3C }
  - { offsetInCU: 0x8CE3, offset: 0x8CE3, size: 0x8, addend: 0x0, symName: __ZNSt3__16__treeINS_12__value_typeIicEENS_19__map_value_compareIiS2_NS_4lessIiEELb1EEENS_9allocatorIS2_EEE3endB7v160006Ev, symObjAddr: 0x17E4, symBinAddr: 0x1000051D0, symSize: 0x34 }
  - { offsetInCU: 0x8D07, offset: 0x8D07, size: 0x8, addend: 0x0, symName: __ZNSt3__121__tree_const_iteratorINS_12__value_typeIicEEPNS_11__tree_nodeIS2_PvEElEC1B7v160006ENS_15__tree_iteratorIS2_S6_lEE, symObjAddr: 0x1818, symBinAddr: 0x100005204, symSize: 0x34 }
  - { offsetInCU: 0x8D3E, offset: 0x8D3E, size: 0x8, addend: 0x0, symName: __ZNSt3__16__treeINS_12__value_typeIicEENS_19__map_value_compareIiS2_NS_4lessIiEELb1EEENS_9allocatorIS2_EEE10value_compB7v160006Ev, symObjAddr: 0x184C, symBinAddr: 0x100005238, symSize: 0x28 }
  - { offsetInCU: 0x8D62, offset: 0x8D62, size: 0x8, addend: 0x0, symName: __ZNKSt3__119__map_value_compareIiNS_12__value_typeIicEENS_4lessIiEELb1EEclB7v160006ERKiRKS2_, symObjAddr: 0x1874, symBinAddr: 0x100005260, symSize: 0x50 }
  - { offsetInCU: 0x8DA4, offset: 0x8DA4, size: 0x8, addend: 0x0, symName: __ZNKSt3__121__tree_const_iteratorINS_12__value_typeIicEEPNS_11__tree_nodeIS2_PvEElEdeB7v160006Ev, symObjAddr: 0x18C4, symBinAddr: 0x1000052B0, symSize: 0x28 }
  - { offsetInCU: 0x8DC8, offset: 0x8DC8, size: 0x8, addend: 0x0, symName: __ZNSt3__16__treeINS_12__value_typeIicEENS_19__map_value_compareIiS2_NS_4lessIiEELb1EEENS_9allocatorIS2_EEE5beginB7v160006Ev, symObjAddr: 0x18EC, symBinAddr: 0x1000052D8, symSize: 0x34 }
  - { offsetInCU: 0x8DEC, offset: 0x8DEC, size: 0x8, addend: 0x0, symName: __ZNKSt3__119__map_value_compareIiNS_12__value_typeIicEENS_4lessIiEELb1EEclB7v160006ERKS2_RKi, symObjAddr: 0x1920, symBinAddr: 0x10000530C, symSize: 0x48 }
  - { offsetInCU: 0x8E2E, offset: 0x8E2E, size: 0x8, addend: 0x0, symName: __ZNSt3__121__tree_const_iteratorINS_12__value_typeIicEEPNS_11__tree_nodeIS2_PvEElEmmB7v160006Ev, symObjAddr: 0x1968, symBinAddr: 0x100005354, symSize: 0x38 }
  - { offsetInCU: 0x8E52, offset: 0x8E52, size: 0x8, addend: 0x0, symName: __ZNSt3__16__treeINS_12__value_typeIicEENS_19__map_value_compareIiS2_NS_4lessIiEELb1EEENS_9allocatorIS2_EEE12__find_equalIiEERPNS_16__tree_node_baseIPvEERPNS_15__tree_end_nodeISE_EERKT_, symObjAddr: 0x19A0, symBinAddr: 0x10000538C, symSize: 0x184 }
  - { offsetInCU: 0x8EBE, offset: 0x8EBE, size: 0x8, addend: 0x0, symName: __ZNKSt3__121__tree_const_iteratorINS_12__value_typeIicEEPNS_11__tree_nodeIS2_PvEElE8__get_npB7v160006Ev, symObjAddr: 0x1B74, symBinAddr: 0x100005560, symSize: 0x18 }
  - { offsetInCU: 0x8EE1, offset: 0x8EE1, size: 0x8, addend: 0x0, symName: __ZNSt3__115__tree_iteratorINS_12__value_typeIicEEPNS_11__tree_nodeIS2_PvEElEC1B7v160006EPNS_15__tree_end_nodeIPNS_16__tree_node_baseIS4_EEEE, symObjAddr: 0x1B8C, symBinAddr: 0x100005578, symSize: 0x34 }
  - { offsetInCU: 0x8F19, offset: 0x8F19, size: 0x8, addend: 0x0, symName: __ZNSt3__115__tree_iteratorINS_12__value_typeIicEEPNS_11__tree_nodeIS2_PvEElEC2B7v160006EPNS_15__tree_end_nodeIPNS_16__tree_node_baseIS4_EEEE, symObjAddr: 0x1BC0, symBinAddr: 0x1000055AC, symSize: 0x20 }
  - { offsetInCU: 0x8F51, offset: 0x8F51, size: 0x8, addend: 0x0, symName: __ZNSt3__121__tree_const_iteratorINS_12__value_typeIicEEPNS_11__tree_nodeIS2_PvEElEC2B7v160006ENS_15__tree_iteratorIS2_S6_lEE, symObjAddr: 0x1BE0, symBinAddr: 0x1000055CC, symSize: 0x20 }
  - { offsetInCU: 0x8F88, offset: 0x8F88, size: 0x8, addend: 0x0, symName: __ZNSt3__117__compressed_pairImNS_19__map_value_compareIiNS_12__value_typeIicEENS_4lessIiEELb1EEEE6secondB7v160006Ev, symObjAddr: 0x1C00, symBinAddr: 0x1000055EC, symSize: 0x24 }
  - { offsetInCU: 0x8FAD, offset: 0x8FAD, size: 0x8, addend: 0x0, symName: __ZNSt3__122__compressed_pair_elemINS_19__map_value_compareIiNS_12__value_typeIicEENS_4lessIiEELb1EEELi1ELb1EE5__getB7v160006Ev, symObjAddr: 0x1C24, symBinAddr: 0x100005610, symSize: 0x14 }
  - { offsetInCU: 0x8FD1, offset: 0x8FD1, size: 0x8, addend: 0x0, symName: __ZNKSt3__14lessIiEclB7v160006ERKiS3_, symObjAddr: 0x1C38, symBinAddr: 0x100005624, symSize: 0x34 }
  - { offsetInCU: 0x9012, offset: 0x9012, size: 0x8, addend: 0x0, symName: __ZNKSt3__112__value_typeIicE11__get_valueB7v160006Ev, symObjAddr: 0x1C6C, symBinAddr: 0x100005658, symSize: 0x24 }
  - { offsetInCU: 0x9037, offset: 0x9037, size: 0x8, addend: 0x0, symName: __ZNKSt3__116__tree_node_baseIPvE15__parent_unsafeB7v160006Ev, symObjAddr: 0x1DD8, symBinAddr: 0x1000057C4, symSize: 0x18 }
  - { offsetInCU: 0x905A, offset: 0x905A, size: 0x8, addend: 0x0, symName: __ZNKSt3__16__treeINS_12__value_typeIicEENS_19__map_value_compareIiS2_NS_4lessIiEELb1EEENS_9allocatorIS2_EEE10__root_ptrEv, symObjAddr: 0x1DF0, symBinAddr: 0x1000057DC, symSize: 0x24 }
  - { offsetInCU: 0x907E, offset: 0x907E, size: 0x8, addend: 0x0, symName: __ZNSt3__121__tree_const_iteratorINS_12__value_typeIicEEPNS_11__tree_nodeIS2_PvEElEppB7v160006Ev, symObjAddr: 0x1F1C, symBinAddr: 0x100005908, symSize: 0x38 }
  - { offsetInCU: 0x90A2, offset: 0x90A2, size: 0x8, addend: 0x0, symName: __ZNSt3__116allocator_traitsINS_9allocatorINS_11__tree_nodeINS_12__value_typeIicEEPvEEEEE8allocateB7v160006ERS7_m, symObjAddr: 0x2014, symBinAddr: 0x100005A00, symSize: 0x2C }
  - { offsetInCU: 0x90D4, offset: 0x90D4, size: 0x8, addend: 0x0, symName: __ZNSt3__122__tree_node_destructorINS_9allocatorINS_11__tree_nodeINS_12__value_typeIicEEPvEEEEEC1B7v160006ERS7_b, symObjAddr: 0x2040, symBinAddr: 0x100005A2C, symSize: 0x48 }
  - { offsetInCU: 0x911F, offset: 0x911F, size: 0x8, addend: 0x0, symName: __ZNSt3__110unique_ptrINS_11__tree_nodeINS_12__value_typeIicEEPvEENS_22__tree_node_destructorINS_9allocatorIS5_EEEEEC1B7v160006ILb1EvEEPS5_NS_16__dependent_typeINS_27__unique_ptr_deleter_sfinaeIS9_EEXT_EE20__good_rval_ref_typeE, symObjAddr: 0x2088, symBinAddr: 0x100005A74, symSize: 0x3C }
  - { offsetInCU: 0x916E, offset: 0x916E, size: 0x8, addend: 0x0, symName: __ZNSt3__116allocator_traitsINS_9allocatorINS_11__tree_nodeINS_12__value_typeIicEEPvEEEEE9constructB7v160006INS_4pairIKicEEJNSA_IicEEEvEEvRS7_PT_DpOT0_, symObjAddr: 0x20C4, symBinAddr: 0x100005AB0, symSize: 0x34 }
  - { offsetInCU: 0x91C4, offset: 0x91C4, size: 0x8, addend: 0x0, symName: __ZNKSt3__110unique_ptrINS_11__tree_nodeINS_12__value_typeIicEEPvEENS_22__tree_node_destructorINS_9allocatorIS5_EEEEEptB7v160006Ev, symObjAddr: 0x20F8, symBinAddr: 0x100005AE4, symSize: 0x28 }
  - { offsetInCU: 0x91E8, offset: 0x91E8, size: 0x8, addend: 0x0, symName: __ZNSt3__110unique_ptrINS_11__tree_nodeINS_12__value_typeIicEEPvEENS_22__tree_node_destructorINS_9allocatorIS5_EEEEE11get_deleterB7v160006Ev, symObjAddr: 0x2120, symBinAddr: 0x100005B0C, symSize: 0x24 }
  - { offsetInCU: 0x920C, offset: 0x920C, size: 0x8, addend: 0x0, symName: __ZNSt3__19allocatorINS_11__tree_nodeINS_12__value_typeIicEEPvEEE8allocateB7v160006Em, symObjAddr: 0x2144, symBinAddr: 0x100005B30, symSize: 0x5C }
  - { offsetInCU: 0x9248, offset: 0x9248, size: 0x8, addend: 0x0, symName: __ZNSt3__116allocator_traitsINS_9allocatorINS_11__tree_nodeINS_12__value_typeIicEEPvEEEEE8max_sizeB7v160006IS7_vEEmRKS7_, symObjAddr: 0x21A0, symBinAddr: 0x100005B8C, symSize: 0x24 }
  - { offsetInCU: 0x9276, offset: 0x9276, size: 0x8, addend: 0x0, symName: __ZNKSt3__19allocatorINS_11__tree_nodeINS_12__value_typeIicEEPvEEE8max_sizeB7v160006Ev, symObjAddr: 0x2258, symBinAddr: 0x100005C44, symSize: 0x18 }
  - { offsetInCU: 0x929A, offset: 0x929A, size: 0x8, addend: 0x0, symName: __ZNSt3__122__tree_node_destructorINS_9allocatorINS_11__tree_nodeINS_12__value_typeIicEEPvEEEEEC2B7v160006ERS7_b, symObjAddr: 0x22C0, symBinAddr: 0x100005CAC, symSize: 0x38 }
  - { offsetInCU: 0x92E0, offset: 0x92E0, size: 0x8, addend: 0x0, symName: __ZNSt3__110unique_ptrINS_11__tree_nodeINS_12__value_typeIicEEPvEENS_22__tree_node_destructorINS_9allocatorIS5_EEEEEC2B7v160006ILb1EvEEPS5_NS_16__dependent_typeINS_27__unique_ptr_deleter_sfinaeIS9_EEXT_EE20__good_rval_ref_typeE, symObjAddr: 0x22F8, symBinAddr: 0x100005CE4, symSize: 0x48 }
  - { offsetInCU: 0x932F, offset: 0x932F, size: 0x8, addend: 0x0, symName: __ZNSt3__117__compressed_pairIPNS_11__tree_nodeINS_12__value_typeIicEEPvEENS_22__tree_node_destructorINS_9allocatorIS5_EEEEEC1B7v160006IRS6_SA_EEOT_OT0_, symObjAddr: 0x2340, symBinAddr: 0x100005D2C, symSize: 0x3C }
  - { offsetInCU: 0x9385, offset: 0x9385, size: 0x8, addend: 0x0, symName: __ZNSt3__117__compressed_pairIPNS_11__tree_nodeINS_12__value_typeIicEEPvEENS_22__tree_node_destructorINS_9allocatorIS5_EEEEEC2B7v160006IRS6_SA_EEOT_OT0_, symObjAddr: 0x237C, symBinAddr: 0x100005D68, symSize: 0x48 }
  - { offsetInCU: 0x93DC, offset: 0x93DC, size: 0x8, addend: 0x0, symName: __ZNSt3__122__compressed_pair_elemIPNS_11__tree_nodeINS_12__value_typeIicEEPvEELi0ELb0EEC2B7v160006IRS6_vEEOT_, symObjAddr: 0x23C4, symBinAddr: 0x100005DB0, symSize: 0x24 }
  - { offsetInCU: 0x941D, offset: 0x941D, size: 0x8, addend: 0x0, symName: __ZNSt3__122__compressed_pair_elemINS_22__tree_node_destructorINS_9allocatorINS_11__tree_nodeINS_12__value_typeIicEEPvEEEEEELi1ELb0EEC2B7v160006IS9_vEEOT_, symObjAddr: 0x23E8, symBinAddr: 0x100005DD4, symSize: 0x24 }
  - { offsetInCU: 0x945D, offset: 0x945D, size: 0x8, addend: 0x0, symName: __ZNSt3__19allocatorINS_11__tree_nodeINS_12__value_typeIicEEPvEEE9constructB7v160006INS_4pairIKicEEJNS8_IicEEEEEvPT_DpOT0_, symObjAddr: 0x240C, symBinAddr: 0x100005DF8, symSize: 0x30 }
  - { offsetInCU: 0x94B1, offset: 0x94B1, size: 0x8, addend: 0x0, symName: __ZNSt3__14pairIKicEC1B7v160006IicLPv0EEEONS0_IT_T0_EE, symObjAddr: 0x243C, symBinAddr: 0x100005E28, symSize: 0x34 }
  - { offsetInCU: 0x9501, offset: 0x9501, size: 0x8, addend: 0x0, symName: __ZNSt3__14pairIKicEC2B7v160006IicLPv0EEEONS0_IT_T0_EE, symObjAddr: 0x2470, symBinAddr: 0x100005E5C, symSize: 0x30 }
  - { offsetInCU: 0x9550, offset: 0x9550, size: 0x8, addend: 0x0, symName: __ZNKSt3__117__compressed_pairIPNS_11__tree_nodeINS_12__value_typeIicEEPvEENS_22__tree_node_destructorINS_9allocatorIS5_EEEEE5firstB7v160006Ev, symObjAddr: 0x24A0, symBinAddr: 0x100005E8C, symSize: 0x24 }
  - { offsetInCU: 0x9575, offset: 0x9575, size: 0x8, addend: 0x0, symName: __ZNKSt3__122__compressed_pair_elemIPNS_11__tree_nodeINS_12__value_typeIicEEPvEELi0ELb0EE5__getB7v160006Ev, symObjAddr: 0x24C4, symBinAddr: 0x100005EB0, symSize: 0x14 }
  - { offsetInCU: 0x9598, offset: 0x9598, size: 0x8, addend: 0x0, symName: __ZNSt3__117__compressed_pairIPNS_11__tree_nodeINS_12__value_typeIicEEPvEENS_22__tree_node_destructorINS_9allocatorIS5_EEEEE6secondB7v160006Ev, symObjAddr: 0x24D8, symBinAddr: 0x100005EC4, symSize: 0x28 }
  - { offsetInCU: 0x95BD, offset: 0x95BD, size: 0x8, addend: 0x0, symName: __ZNSt3__122__compressed_pair_elemINS_22__tree_node_destructorINS_9allocatorINS_11__tree_nodeINS_12__value_typeIicEEPvEEEEEELi1ELb0EE5__getB7v160006Ev, symObjAddr: 0x2500, symBinAddr: 0x100005EEC, symSize: 0x14 }
  - { offsetInCU: 0x95E0, offset: 0x95E0, size: 0x8, addend: 0x0, symName: __ZNSt3__16__treeINS_12__value_typeIicEENS_19__map_value_compareIiS2_NS_4lessIiEELb1EEENS_9allocatorIS2_EEE4sizeB7v160006Ev, symObjAddr: 0x2790, symBinAddr: 0x10000617C, symSize: 0x28 }
  - { offsetInCU: 0x9605, offset: 0x9605, size: 0x8, addend: 0x0, symName: __ZNSt3__116__tree_node_baseIPvE12__set_parentB7v160006EPS2_, symObjAddr: 0x295C, symBinAddr: 0x100006348, symSize: 0x20 }
  - { offsetInCU: 0x9637, offset: 0x9637, size: 0x8, addend: 0x0, symName: __ZNSt3__117__compressed_pairImNS_19__map_value_compareIiNS_12__value_typeIicEENS_4lessIiEELb1EEEE5firstB7v160006Ev, symObjAddr: 0x297C, symBinAddr: 0x100006368, symSize: 0x24 }
  - { offsetInCU: 0x965C, offset: 0x965C, size: 0x8, addend: 0x0, symName: __ZNSt3__122__compressed_pair_elemImLi0ELb0EE5__getB7v160006Ev, symObjAddr: 0x29A0, symBinAddr: 0x10000638C, symSize: 0x14 }
  - { offsetInCU: 0x967F, offset: 0x967F, size: 0x8, addend: 0x0, symName: __ZNSt3__117__compressed_pairIPNS_11__tree_nodeINS_12__value_typeIicEEPvEENS_22__tree_node_destructorINS_9allocatorIS5_EEEEE5firstB7v160006Ev, symObjAddr: 0x29B4, symBinAddr: 0x1000063A0, symSize: 0x24 }
  - { offsetInCU: 0x96A4, offset: 0x96A4, size: 0x8, addend: 0x0, symName: __ZNSt3__122__compressed_pair_elemIPNS_11__tree_nodeINS_12__value_typeIicEEPvEELi0ELb0EE5__getB7v160006Ev, symObjAddr: 0x29D8, symBinAddr: 0x1000063C4, symSize: 0x14 }
  - { offsetInCU: 0x96C7, offset: 0x96C7, size: 0x8, addend: 0x0, symName: __ZNSt3__110unique_ptrINS_11__tree_nodeINS_12__value_typeIicEEPvEENS_22__tree_node_destructorINS_9allocatorIS5_EEEEED2B7v160006Ev, symObjAddr: 0x29EC, symBinAddr: 0x1000063D8, symSize: 0x30 }
  - { offsetInCU: 0x96EF, offset: 0x96EF, size: 0x8, addend: 0x0, symName: __ZNSt3__110unique_ptrINS_11__tree_nodeINS_12__value_typeIicEEPvEENS_22__tree_node_destructorINS_9allocatorIS5_EEEEE5resetB7v160006EPS5_, symObjAddr: 0x2A1C, symBinAddr: 0x100006408, symSize: 0x78 }
  - { offsetInCU: 0x9731, offset: 0x9731, size: 0x8, addend: 0x0, symName: __ZNSt3__122__tree_node_destructorINS_9allocatorINS_11__tree_nodeINS_12__value_typeIicEEPvEEEEEclB7v160006EPS6_, symObjAddr: 0x2A94, symBinAddr: 0x100006480, symSize: 0x94 }
  - { offsetInCU: 0x9765, offset: 0x9765, size: 0x8, addend: 0x0, symName: __ZNSt3__115__tree_iteratorINS_12__value_typeIicEEPNS_11__tree_nodeIS2_PvEElEC2B7v160006ES6_, symObjAddr: 0x2B28, symBinAddr: 0x100006514, symSize: 0x20 }
  - { offsetInCU: 0x979D, offset: 0x979D, size: 0x8, addend: 0x0, symName: __ZNSt3__14pairINS_15__tree_iteratorINS_12__value_typeIicEEPNS_11__tree_nodeIS3_PvEElEEbEC2B7v160006IS8_RbLS5_0EEEOT_OT0_, symObjAddr: 0x2B48, symBinAddr: 0x100006534, symSize: 0x38 }
  - { offsetInCU: 0x97FA, offset: 0x97FA, size: 0x8, addend: 0x0, symName: __ZNSt3__114__map_iteratorINS_15__tree_iteratorINS_12__value_typeIicEEPNS_11__tree_nodeIS3_PvEElEEEC2B7v160006ES8_, symObjAddr: 0x2B80, symBinAddr: 0x10000656C, symSize: 0x20 }
  - { offsetInCU: 0x9831, offset: 0x9831, size: 0x8, addend: 0x0, symName: __ZNSt3__120__map_const_iteratorINS_21__tree_const_iteratorINS_12__value_typeIicEEPNS_11__tree_nodeIS3_PvEElEEEC2B7v160006ENS_14__map_iteratorINS_15__tree_iteratorIS3_S7_lEEEE, symObjAddr: 0x2BA0, symBinAddr: 0x10000658C, symSize: 0x3C }
  - { offsetInCU: 0x9868, offset: 0x9868, size: 0x8, addend: 0x0, symName: __ZNSt3__14pairIicEC1B7v160006IiRKcLPv0EEEOT_OT0_, symObjAddr: 0x2BDC, symBinAddr: 0x1000065C8, symSize: 0x3C }
  - { offsetInCU: 0x98C5, offset: 0x98C5, size: 0x8, addend: 0x0, symName: __ZNSt3__14pairIicEC2B7v160006IiRKcLPv0EEEOT_OT0_, symObjAddr: 0x2C18, symBinAddr: 0x100006604, symSize: 0x34 }
  - { offsetInCU: 0x9922, offset: 0x9922, size: 0x8, addend: 0x0, symName: __ZNSt3__123__libcpp_numeric_limitsIiLb1EE6lowestB7v160006Ev, symObjAddr: 0x2C4C, symBinAddr: 0x100006638, symSize: 0x14 }
  - { offsetInCU: 0x9936, offset: 0x9936, size: 0x8, addend: 0x0, symName: __ZNSt3__123__libcpp_numeric_limitsIiLb1EE3minB7v160006Ev, symObjAddr: 0x2C60, symBinAddr: 0x10000664C, symSize: 0x8 }
  - { offsetInCU: 0x9949, offset: 0x9949, size: 0x8, addend: 0x0, symName: __ZNSt3__13mapIicNS_4lessIiEENS_9allocatorINS_4pairIKicEEEEE11lower_boundB7v160006ERS5_, symObjAddr: 0x2C68, symBinAddr: 0x100006654, symSize: 0x40 }
  - { offsetInCU: 0x997C, offset: 0x997C, size: 0x8, addend: 0x0, symName: __ZNSt3__13mapIicNS_4lessIiEENS_9allocatorINS_4pairIKicEEEEE11upper_boundB7v160006ERS5_, symObjAddr: 0x2CA8, symBinAddr: 0x100006694, symSize: 0x40 }
  - { offsetInCU: 0x99AF, offset: 0x99AF, size: 0x8, addend: 0x0, symName: __ZNSt3__114__map_iteratorINS_15__tree_iteratorINS_12__value_typeIicEEPNS_11__tree_nodeIS3_PvEElEEEC1B7v160006Ev, symObjAddr: 0x2D40, symBinAddr: 0x10000672C, symSize: 0x2C }
  - { offsetInCU: 0x99D7, offset: 0x99D7, size: 0x8, addend: 0x0, symName: __ZNKSt3__114__map_iteratorINS_15__tree_iteratorINS_12__value_typeIicEEPNS_11__tree_nodeIS3_PvEElEEEptB7v160006Ev, symObjAddr: 0x2D6C, symBinAddr: 0x100006758, symSize: 0x2C }
  - { offsetInCU: 0x99FB, offset: 0x99FB, size: 0x8, addend: 0x0, symName: __ZNSt3__13mapIicNS_4lessIiEENS_9allocatorINS_4pairIKicEEEEE16insert_or_assignB7v160006IRKcEENS_14__map_iteratorINS_15__tree_iteratorINS_12__value_typeIicEEPNS_11__tree_nodeISF_PvEElEEEENS_20__map_const_iteratorINS_21__tree_const_iteratorISF_SJ_lEEEERS5_OT_, symObjAddr: 0x2D98, symBinAddr: 0x100006784, symSize: 0xC4 }
  - { offsetInCU: 0x9A7B, offset: 0x9A7B, size: 0x8, addend: 0x0, symName: __ZNSt3__13mapIicNS_4lessIiEENS_9allocatorINS_4pairIKicEEEEE5beginB7v160006Ev, symObjAddr: 0x2E8C, symBinAddr: 0x100006878, symSize: 0x38 }
  - { offsetInCU: 0x9A9F, offset: 0x9A9F, size: 0x8, addend: 0x0, symName: __ZNSt3__13mapIicNS_4lessIiEENS_9allocatorINS_4pairIKicEEEEEixEOi, symObjAddr: 0x2EC4, symBinAddr: 0x1000068B0, symSize: 0x80 }
  - { offsetInCU: 0x9AD4, offset: 0x9AD4, size: 0x8, addend: 0x0, symName: __ZNSt3__114__map_iteratorINS_15__tree_iteratorINS_12__value_typeIicEEPNS_11__tree_nodeIS3_PvEElEEEppB7v160006Ev, symObjAddr: 0x2F44, symBinAddr: 0x100006930, symSize: 0x2C }
  - { offsetInCU: 0x9AF8, offset: 0x9AF8, size: 0x8, addend: 0x0, symName: __ZNSt3__16__treeINS_12__value_typeIicEENS_19__map_value_compareIiS2_NS_4lessIiEELb1EEENS_9allocatorIS2_EEE11lower_boundB7v160006IiEENS_15__tree_iteratorIS2_PNS_11__tree_nodeIS2_PvEElEERKT_, symObjAddr: 0x2F70, symBinAddr: 0x10000695C, symSize: 0x60 }
  - { offsetInCU: 0x9B34, offset: 0x9B34, size: 0x8, addend: 0x0, symName: __ZNSt3__16__treeINS_12__value_typeIicEENS_19__map_value_compareIiS2_NS_4lessIiEELb1EEENS_9allocatorIS2_EEE13__lower_boundIiEENS_15__tree_iteratorIS2_PNS_11__tree_nodeIS2_PvEElEERKT_SF_PNS_15__tree_end_nodeIPNS_16__tree_node_baseISD_EEEE, symObjAddr: 0x2FD0, symBinAddr: 0x1000069BC, symSize: 0xA4 }
  - { offsetInCU: 0x9B90, offset: 0x9B90, size: 0x8, addend: 0x0, symName: __ZNSt3__16__treeINS_12__value_typeIicEENS_19__map_value_compareIiS2_NS_4lessIiEELb1EEENS_9allocatorIS2_EEE11upper_boundB7v160006IiEENS_15__tree_iteratorIS2_PNS_11__tree_nodeIS2_PvEElEERKT_, symObjAddr: 0x3074, symBinAddr: 0x100006A60, symSize: 0x60 }
  - { offsetInCU: 0x9BCC, offset: 0x9BCC, size: 0x8, addend: 0x0, symName: __ZNSt3__16__treeINS_12__value_typeIicEENS_19__map_value_compareIiS2_NS_4lessIiEELb1EEENS_9allocatorIS2_EEE13__upper_boundIiEENS_15__tree_iteratorIS2_PNS_11__tree_nodeIS2_PvEElEERKT_SF_PNS_15__tree_end_nodeIPNS_16__tree_node_baseISD_EEEE, symObjAddr: 0x30D4, symBinAddr: 0x100006AC0, symSize: 0xA4 }
  - { offsetInCU: 0x9C28, offset: 0x9C28, size: 0x8, addend: 0x0, symName: __ZNSt3__114__map_iteratorINS_15__tree_iteratorINS_12__value_typeIicEEPNS_11__tree_nodeIS3_PvEElEEEmmB7v160006Ev, symObjAddr: 0x326C, symBinAddr: 0x100006C58, symSize: 0x2C }
  - { offsetInCU: 0x9C4C, offset: 0x9C4C, size: 0x8, addend: 0x0, symName: __ZNSt3__115__tree_iteratorINS_12__value_typeIicEEPNS_11__tree_nodeIS2_PvEElEmmB7v160006Ev, symObjAddr: 0x3298, symBinAddr: 0x100006C84, symSize: 0x38 }
  - { offsetInCU: 0x9C70, offset: 0x9C70, size: 0x8, addend: 0x0, symName: __ZNSt3__114__map_iteratorINS_15__tree_iteratorINS_12__value_typeIicEEPNS_11__tree_nodeIS3_PvEElEEEC2B7v160006Ev, symObjAddr: 0x32D0, symBinAddr: 0x100006CBC, symSize: 0x2C }
  - { offsetInCU: 0x9C98, offset: 0x9C98, size: 0x8, addend: 0x0, symName: __ZNSt3__115__tree_iteratorINS_12__value_typeIicEEPNS_11__tree_nodeIS2_PvEElEC1B7v160006Ev, symObjAddr: 0x32FC, symBinAddr: 0x100006CE8, symSize: 0x2C }
  - { offsetInCU: 0x9CC1, offset: 0x9CC1, size: 0x8, addend: 0x0, symName: __ZNSt3__115__tree_iteratorINS_12__value_typeIicEEPNS_11__tree_nodeIS2_PvEElEC2B7v160006Ev, symObjAddr: 0x3328, symBinAddr: 0x100006D14, symSize: 0x18 }
  - { offsetInCU: 0x9CE9, offset: 0x9CE9, size: 0x8, addend: 0x0, symName: __ZNSt3__114pointer_traitsIPNS_4pairIKicEEE10pointer_toB7v160006ERS3_, symObjAddr: 0x3340, symBinAddr: 0x100006D2C, symSize: 0x14 }
  - { offsetInCU: 0x9D0B, offset: 0x9D0B, size: 0x8, addend: 0x0, symName: __ZNKSt3__115__tree_iteratorINS_12__value_typeIicEEPNS_11__tree_nodeIS2_PvEElEptB7v160006Ev, symObjAddr: 0x3354, symBinAddr: 0x100006D40, symSize: 0x2C }
  - { offsetInCU: 0x9D2F, offset: 0x9D2F, size: 0x8, addend: 0x0, symName: __ZNSt3__114pointer_traitsIPNS_12__value_typeIicEEE10pointer_toB7v160006ERS2_, symObjAddr: 0x3380, symBinAddr: 0x100006D6C, symSize: 0x14 }
  - { offsetInCU: 0x9D52, offset: 0x9D52, size: 0x8, addend: 0x0, symName: __ZNKSt3__115__tree_iteratorINS_12__value_typeIicEEPNS_11__tree_nodeIS2_PvEElE8__get_npB7v160006Ev, symObjAddr: 0x3394, symBinAddr: 0x100006D80, symSize: 0x18 }
  - { offsetInCU: 0x9D75, offset: 0x9D75, size: 0x8, addend: 0x0, symName: __ZNSt3__16__treeINS_12__value_typeIicEENS_19__map_value_compareIiS2_NS_4lessIiEELb1EEENS_9allocatorIS2_EEE30__emplace_hint_unique_key_argsIiJRKiRKcEEENS_4pairINS_15__tree_iteratorIS2_PNS_11__tree_nodeIS2_PvEElEEbEENS_21__tree_const_iteratorIS2_SK_lEERKT_DpOT0_, symObjAddr: 0x33AC, symBinAddr: 0x100006D98, symSize: 0x10C }
  - { offsetInCU: 0x9E54, offset: 0x9E54, size: 0x8, addend: 0x0, symName: __ZNSt3__16__treeINS_12__value_typeIicEENS_19__map_value_compareIiS2_NS_4lessIiEELb1EEENS_9allocatorIS2_EEE16__construct_nodeIJRKiRKcEEENS_10unique_ptrINS_11__tree_nodeIS2_PvEENS_22__tree_node_destructorINS7_ISI_EEEEEEDpOT_, symObjAddr: 0x3500, symBinAddr: 0x100006EEC, symSize: 0x118 }
  - { offsetInCU: 0x9EC7, offset: 0x9EC7, size: 0x8, addend: 0x0, symName: __ZNSt3__116allocator_traitsINS_9allocatorINS_11__tree_nodeINS_12__value_typeIicEEPvEEEEE9constructB7v160006INS_4pairIKicEEJRSB_RKcEvEEvRS7_PT_DpOT0_, symObjAddr: 0x3618, symBinAddr: 0x100007004, symSize: 0x3C }
  - { offsetInCU: 0x9F31, offset: 0x9F31, size: 0x8, addend: 0x0, symName: __ZNSt3__19allocatorINS_11__tree_nodeINS_12__value_typeIicEEPvEEE9constructB7v160006INS_4pairIKicEEJRS9_RKcEEEvPT_DpOT0_, symObjAddr: 0x3654, symBinAddr: 0x100007040, symSize: 0x38 }
  - { offsetInCU: 0x9F98, offset: 0x9F98, size: 0x8, addend: 0x0, symName: __ZNSt3__14pairIKicEC1B7v160006ILb1ELPv0EEERS1_RKc, symObjAddr: 0x368C, symBinAddr: 0x100007078, symSize: 0x3C }
  - { offsetInCU: 0x9FED, offset: 0x9FED, size: 0x8, addend: 0x0, symName: __ZNSt3__14pairIKicEC2B7v160006ILb1ELPv0EEERS1_RKc, symObjAddr: 0x36C8, symBinAddr: 0x1000070B4, symSize: 0x34 }
  - { offsetInCU: 0xA041, offset: 0xA041, size: 0x8, addend: 0x0, symName: __ZNSt3__110__get_pairILm0EE3getB7v160006INS_15__tree_iteratorINS_12__value_typeIicEEPNS_11__tree_nodeIS5_PvEElEEbEEOT_ONS_4pairISB_T0_EE, symObjAddr: 0x36FC, symBinAddr: 0x1000070E8, symSize: 0x14 }
  - { offsetInCU: 0xA07B, offset: 0xA07B, size: 0x8, addend: 0x0, symName: __ZNSt3__110__get_pairILm1EE3getB7v160006INS_15__tree_iteratorINS_12__value_typeIicEEPNS_11__tree_nodeIS5_PvEElEEbEEOT0_ONS_4pairIT_SB_EE, symObjAddr: 0x3710, symBinAddr: 0x1000070FC, symSize: 0x18 }
  - { offsetInCU: 0xA0C4, offset: 0xA0C4, size: 0x8, addend: 0x0, symName: __ZNSt3__16__treeINS_12__value_typeIicEENS_19__map_value_compareIiS2_NS_4lessIiEELb1EEENS_9allocatorIS2_EEE25__emplace_unique_key_argsIiJRKNS_21piecewise_construct_tENS_5tupleIJOiEEENSE_IJEEEEEENS_4pairINS_15__tree_iteratorIS2_PNS_11__tree_nodeIS2_PvEElEEbEERKT_DpOT0_, symObjAddr: 0x378C, symBinAddr: 0x100007178, symSize: 0x100 }
  - { offsetInCU: 0xA198, offset: 0xA198, size: 0x8, addend: 0x0, symName: __ZNSt3__16__treeINS_12__value_typeIicEENS_19__map_value_compareIiS2_NS_4lessIiEELb1EEENS_9allocatorIS2_EEE16__construct_nodeIJRKNS_21piecewise_construct_tENS_5tupleIJOiEEENSE_IJEEEEEENS_10unique_ptrINS_11__tree_nodeIS2_PvEENS_22__tree_node_destructorINS7_ISL_EEEEEEDpOT_, symObjAddr: 0x38BC, symBinAddr: 0x1000072A8, symSize: 0x120 }
  - { offsetInCU: 0xA21F, offset: 0xA21F, size: 0x8, addend: 0x0, symName: __ZNSt3__116allocator_traitsINS_9allocatorINS_11__tree_nodeINS_12__value_typeIicEEPvEEEEE9constructB7v160006INS_4pairIKicEEJRKNS_21piecewise_construct_tENS_5tupleIJOiEEENSG_IJEEEEvEEvRS7_PT_DpOT0_, symObjAddr: 0x39DC, symBinAddr: 0x1000073C8, symSize: 0x44 }
  - { offsetInCU: 0xA29D, offset: 0xA29D, size: 0x8, addend: 0x0, symName: __ZNSt3__19allocatorINS_11__tree_nodeINS_12__value_typeIicEEPvEEE9constructB7v160006INS_4pairIKicEEJRKNS_21piecewise_construct_tENS_5tupleIJOiEEENSE_IJEEEEEEvPT_DpOT0_, symObjAddr: 0x3A20, symBinAddr: 0x10000740C, symSize: 0x44 }
  - { offsetInCU: 0xA317, offset: 0xA317, size: 0x8, addend: 0x0, symName: __ZNSt3__14pairIKicEC1B7v160006IJOiEJEEENS_21piecewise_construct_tENS_5tupleIJDpT_EEENS6_IJDpT0_EEE, symObjAddr: 0x3A64, symBinAddr: 0x100007450, symSize: 0x44 }
  - { offsetInCU: 0xA37D, offset: 0xA37D, size: 0x8, addend: 0x0, symName: __ZNSt3__14pairIKicEC1B7v160006IJOiEJEJLm0EEJEEENS_21piecewise_construct_tERNS_5tupleIJDpT_EEERNS6_IJDpT0_EEENS_15__tuple_indicesIJXspT1_EEEENSF_IJXspT2_EEEE, symObjAddr: 0x3AA8, symBinAddr: 0x100007494, symSize: 0x3C }
  - { offsetInCU: 0xA409, offset: 0xA409, size: 0x8, addend: 0x0, symName: __ZNSt3__14pairIKicEC2B7v160006IJOiEJEJLm0EEJEEENS_21piecewise_construct_tERNS_5tupleIJDpT_EEERNS6_IJDpT0_EEENS_15__tuple_indicesIJXspT1_EEEENSF_IJXspT2_EEEE, symObjAddr: 0x3AE4, symBinAddr: 0x1000074D0, symSize: 0x48 }
  - { offsetInCU: 0xA495, offset: 0xA495, size: 0x8, addend: 0x0, symName: __ZNSt3__112__tuple_leafILm0EOiLb0EE3getB7v160006Ev, symObjAddr: 0x3B50, symBinAddr: 0x10000753C, symSize: 0x18 }
  - { offsetInCU: 0xA4B8, offset: 0xA4B8, size: 0x8, addend: 0x0, symName: __ZNSt3__15tupleIJOiEEC1B7v160006IJiELi0EEEDpOT_, symObjAddr: 0x3B68, symBinAddr: 0x100007554, symSize: 0x34 }
  - { offsetInCU: 0xA500, offset: 0xA500, size: 0x8, addend: 0x0, symName: __ZNSt3__15tupleIJOiEEC2B7v160006IJiELi0EEEDpOT_, symObjAddr: 0x3B9C, symBinAddr: 0x100007588, symSize: 0x34 }
  - { offsetInCU: 0xA548, offset: 0xA548, size: 0x8, addend: 0x0, symName: __ZNSt3__112__tuple_implINS_15__tuple_indicesIJLm0EEEEJOiEEC1B7v160006IJLm0EEJS3_EJEJEJiEEENS1_IJXspT_EEEENS_13__tuple_typesIJDpT0_EEENS1_IJXspT1_EEEENS7_IJDpT2_EEEDpOT3_, symObjAddr: 0x3BD0, symBinAddr: 0x1000075BC, symSize: 0x34 }
  - { offsetInCU: 0xA5D7, offset: 0xA5D7, size: 0x8, addend: 0x0, symName: __ZNSt3__112__tuple_implINS_15__tuple_indicesIJLm0EEEEJOiEEC2B7v160006IJLm0EEJS3_EJEJEJiEEENS1_IJXspT_EEEENS_13__tuple_typesIJDpT0_EEENS1_IJXspT1_EEEENS7_IJDpT2_EEEDpOT3_, symObjAddr: 0x3C04, symBinAddr: 0x1000075F0, symSize: 0x34 }
  - { offsetInCU: 0xA667, offset: 0xA667, size: 0x8, addend: 0x0, symName: __ZNSt3__112__tuple_leafILm0EOiLb0EEC2B7v160006IivEEOT_, symObjAddr: 0x3C38, symBinAddr: 0x100007624, symSize: 0x20 }
  - { offsetInCU: 0xA6A8, offset: 0xA6A8, size: 0x8, addend: 0x0, symName: __ZNSt3__115__tree_iteratorINS_12__value_typeIicEEPNS_11__tree_nodeIS2_PvEElEppB7v160006Ev, symObjAddr: 0x3C58, symBinAddr: 0x100007644, symSize: 0x38 }
  - { offsetInCU: 0xA6CC, offset: 0xA6CC, size: 0x8, addend: 0x0, symName: __ZNKSt3__13mapIicNS_4lessIiEENS_9allocatorINS_4pairIKicEEEEE11upper_boundB7v160006ERS5_, symObjAddr: 0x3C90, symBinAddr: 0x10000767C, symSize: 0x40 }
  - { offsetInCU: 0xA6FF, offset: 0xA6FF, size: 0x8, addend: 0x0, symName: __ZNKSt3__13mapIicNS_4lessIiEENS_9allocatorINS_4pairIKicEEEEE5beginB7v160006Ev, symObjAddr: 0x3D00, symBinAddr: 0x1000076EC, symSize: 0x38 }
  - { offsetInCU: 0xA723, offset: 0xA723, size: 0x8, addend: 0x0, symName: __ZNSt3__120__map_const_iteratorINS_21__tree_const_iteratorINS_12__value_typeIicEEPNS_11__tree_nodeIS3_PvEElEEEmmB7v160006Ev, symObjAddr: 0x3D38, symBinAddr: 0x100007724, symSize: 0x2C }
  - { offsetInCU: 0xA747, offset: 0xA747, size: 0x8, addend: 0x0, symName: __ZNKSt3__120__map_const_iteratorINS_21__tree_const_iteratorINS_12__value_typeIicEEPNS_11__tree_nodeIS3_PvEElEEEptB7v160006Ev, symObjAddr: 0x3D64, symBinAddr: 0x100007750, symSize: 0x2C }
  - { offsetInCU: 0xA76B, offset: 0xA76B, size: 0x8, addend: 0x0, symName: __ZNKSt3__16__treeINS_12__value_typeIicEENS_19__map_value_compareIiS2_NS_4lessIiEELb1EEENS_9allocatorIS2_EEE11upper_boundB7v160006IiEENS_21__tree_const_iteratorIS2_PNS_11__tree_nodeIS2_PvEElEERKT_, symObjAddr: 0x3D90, symBinAddr: 0x10000777C, symSize: 0x60 }
  - { offsetInCU: 0xA7A7, offset: 0xA7A7, size: 0x8, addend: 0x0, symName: __ZNSt3__120__map_const_iteratorINS_21__tree_const_iteratorINS_12__value_typeIicEEPNS_11__tree_nodeIS3_PvEElEEEC1B7v160006ES8_, symObjAddr: 0x3DF0, symBinAddr: 0x1000077DC, symSize: 0x34 }
  - { offsetInCU: 0xA7DE, offset: 0xA7DE, size: 0x8, addend: 0x0, symName: __ZNKSt3__16__treeINS_12__value_typeIicEENS_19__map_value_compareIiS2_NS_4lessIiEELb1EEENS_9allocatorIS2_EEE13__upper_boundIiEENS_21__tree_const_iteratorIS2_PNS_11__tree_nodeIS2_PvEElEERKT_SF_PNS_15__tree_end_nodeIPNS_16__tree_node_baseISD_EEEE, symObjAddr: 0x3E24, symBinAddr: 0x100007810, symSize: 0xA4 }
  - { offsetInCU: 0xA83A, offset: 0xA83A, size: 0x8, addend: 0x0, symName: __ZNKSt3__16__treeINS_12__value_typeIicEENS_19__map_value_compareIiS2_NS_4lessIiEELb1EEENS_9allocatorIS2_EEE10value_compB7v160006Ev, symObjAddr: 0x3EC8, symBinAddr: 0x1000078B4, symSize: 0x28 }
  - { offsetInCU: 0xA85E, offset: 0xA85E, size: 0x8, addend: 0x0, symName: __ZNSt3__121__tree_const_iteratorINS_12__value_typeIicEEPNS_11__tree_nodeIS2_PvEElEC1B7v160006EPNS_15__tree_end_nodeIPNS_16__tree_node_baseIS4_EEEE, symObjAddr: 0x3EF0, symBinAddr: 0x1000078DC, symSize: 0x34 }
  - { offsetInCU: 0xA895, offset: 0xA895, size: 0x8, addend: 0x0, symName: __ZNKSt3__117__compressed_pairImNS_19__map_value_compareIiNS_12__value_typeIicEENS_4lessIiEELb1EEEE6secondB7v160006Ev, symObjAddr: 0x3F24, symBinAddr: 0x100007910, symSize: 0x24 }
  - { offsetInCU: 0xA8BA, offset: 0xA8BA, size: 0x8, addend: 0x0, symName: __ZNKSt3__122__compressed_pair_elemINS_19__map_value_compareIiNS_12__value_typeIicEENS_4lessIiEELb1EEELi1ELb1EE5__getB7v160006Ev, symObjAddr: 0x3F48, symBinAddr: 0x100007934, symSize: 0x14 }
  - { offsetInCU: 0xA8DE, offset: 0xA8DE, size: 0x8, addend: 0x0, symName: __ZNSt3__121__tree_const_iteratorINS_12__value_typeIicEEPNS_11__tree_nodeIS2_PvEElEC2B7v160006EPNS_15__tree_end_nodeIPNS_16__tree_node_baseIS4_EEEE, symObjAddr: 0x3F5C, symBinAddr: 0x100007948, symSize: 0x20 }
  - { offsetInCU: 0xA916, offset: 0xA916, size: 0x8, addend: 0x0, symName: __ZNSt3__120__map_const_iteratorINS_21__tree_const_iteratorINS_12__value_typeIicEEPNS_11__tree_nodeIS3_PvEElEEEC2B7v160006ES8_, symObjAddr: 0x3F7C, symBinAddr: 0x100007968, symSize: 0x20 }
  - { offsetInCU: 0xA94D, offset: 0xA94D, size: 0x8, addend: 0x0, symName: __ZNKSt3__16__treeINS_12__value_typeIicEENS_19__map_value_compareIiS2_NS_4lessIiEELb1EEENS_9allocatorIS2_EEE5beginB7v160006Ev, symObjAddr: 0x3F9C, symBinAddr: 0x100007988, symSize: 0x34 }
  - { offsetInCU: 0xA972, offset: 0xA972, size: 0x8, addend: 0x0, symName: __ZNKSt3__16__treeINS_12__value_typeIicEENS_19__map_value_compareIiS2_NS_4lessIiEELb1EEENS_9allocatorIS2_EEE12__begin_nodeB7v160006Ev, symObjAddr: 0x3FD0, symBinAddr: 0x1000079BC, symSize: 0x14 }
  - { offsetInCU: 0xA995, offset: 0xA995, size: 0x8, addend: 0x0, symName: __ZNSt3__114pointer_traitsIPKNS_4pairIKicEEE10pointer_toB7v160006ERS4_, symObjAddr: 0x3FE4, symBinAddr: 0x1000079D0, symSize: 0x14 }
  - { offsetInCU: 0xA9B7, offset: 0xA9B7, size: 0x8, addend: 0x0, symName: __ZNKSt3__121__tree_const_iteratorINS_12__value_typeIicEEPNS_11__tree_nodeIS2_PvEElEptB7v160006Ev, symObjAddr: 0x3FF8, symBinAddr: 0x1000079E4, symSize: 0x2C }
  - { offsetInCU: 0xA9DB, offset: 0xA9DB, size: 0x8, addend: 0x0, symName: __ZNSt3__114pointer_traitsIPKNS_12__value_typeIicEEE10pointer_toB7v160006ERS3_, symObjAddr: 0x4024, symBinAddr: 0x100007A10, symSize: 0x14 }
...
